; Function Attrs: nofree nosync nounwind sspstrong memory(read, inaccessiblemem: none) uwtable
define range(i32 0, 2) i32 @cJSON_HasObjectItem(ptr noundef readonly %0, ptr noundef readonly %1) local_unnamed_addr #17 {
  %3 = icmp eq ptr %0, null
  %4 = icmp eq ptr %1, null
  %or.cond.i.i = or i1 %3, %4
  br i1 %or.cond.i.i, label %cJSON_GetObjectItem.exit, label %5

5:                                                ; preds = %2
  %6 = getelementptr inbounds nuw i8, ptr %0, i64 16
  %7 = load ptr, ptr %6, align 8, !tbaa !25
  %.not2350.i.i = icmp eq ptr %7, null
  br i1 %.not2350.i.i, label %cJSON_GetObjectItem.exit, label %.lr.ph52.i.i

.lr.ph52.i.i:                                     ; preds = %5, %case_insensitive_strcmp.exit.thread30.i.i
  %.251.i.i = phi ptr [ %38, %case_insensitive_strcmp.exit.thread30.i.i ], [ %7, %5 ]
  %8 = getelementptr inbounds nuw i8, ptr %.251.i.i, i64 56
  %9 = load ptr, ptr %8, align 8, !tbaa !26
  %10 = icmp eq ptr %9, null
  br i1 %10, label %case_insensitive_strcmp.exit.thread30.i.i, label %11

11:                                               ; preds = %.lr.ph52.i.i
  %12 = icmp eq ptr %1, %9
  br i1 %12, label %cJSON_GetObjectItem.exit, label %.preheader.i.i.i

.preheader.i.i.i:                                 ; preds = %11
  %13 = tail call ptr @__ctype_tolower_loc() #33
  %14 = load ptr, ptr %13, align 8, !tbaa !54
  %15 = load i8, ptr %1, align 1, !tbaa !34
  %16 = zext i8 %15 to i64
  %17 = getelementptr inbounds nuw i32, ptr %14, i64 %16
  %18 = load i32, ptr %17, align 4, !tbaa !56
  %19 = load i8, ptr %9, align 1, !tbaa !34
  %20 = zext i8 %19 to i64
  %21 = getelementptr inbounds nuw i32, ptr %14, i64 %20
  %22 = load i32, ptr %21, align 4, !tbaa !56
  %23 = icmp eq i32 %18, %22
  br i1 %23, label %.lr.ph.i.i.i, label %case_insensitive_strcmp.exit.i.i

.lr.ph.i.i.i:                                     ; preds = %.preheader.i.i.i, %26
  %24 = phi i8 [ %29, %26 ], [ %15, %.preheader.i.i.i ]
  %.02030.i.i.i = phi ptr [ %27, %26 ], [ %1, %.preheader.i.i.i ]
  %.02129.i.i.i = phi ptr [ %28, %26 ], [ %9, %.preheader.i.i.i ]
  %25 = icmp eq i8 %24, 0
  br i1 %25, label %cJSON_GetObjectItem.exit, label %26

26:                                               ; preds = %.lr.ph.i.i.i
  %27 = getelementptr inbounds nuw i8, ptr %.02030.i.i.i, i64 1
  %28 = getelementptr inbounds nuw i8, ptr %.02129.i.i.i, i64 1
  %29 = load i8, ptr %27, align 1, !tbaa !34
  %30 = zext i8 %29 to i64
  %31 = getelementptr inbounds nuw i32, ptr %14, i64 %30
  %32 = load i32, ptr %31, align 4, !tbaa !56
  %33 = load i8, ptr %28, align 1, !tbaa !34
  %34 = zext i8 %33 to i64
  %35 = getelementptr inbounds nuw i32, ptr %14, i64 %34
  %36 = load i32, ptr %35, align 4, !tbaa !56
  %37 = icmp eq i32 %32, %36
  br i1 %37, label %.lr.ph.i.i.i, label %case_insensitive_strcmp.exit.i.i

case_insensitive_strcmp.exit.i.i:                 ; preds = %26, %.preheader.i.i.i
  %.lcssa27.i.i.i = phi i32 [ %18, %.preheader.i.i.i ], [ %32, %26 ]
  %.lcssa.i.i.i = phi i32 [ %22, %.preheader.i.i.i ], [ %36, %26 ]
  %.not24.i.i = icmp eq i32 %.lcssa27.i.i.i, %.lcssa.i.i.i
  br i1 %.not24.i.i, label %cJSON_GetObjectItem.exit, label %case_insensitive_strcmp.exit.thread30.i.i

case_insensitive_strcmp.exit.thread30.i.i:        ; preds = %case_insensitive_strcmp.exit.i.i, %.lr.ph52.i.i
  %38 = load ptr, ptr %.251.i.i, align 8, !tbaa !24
  %.not23.i.i = icmp eq ptr %38, null
  br i1 %.not23.i.i, label %cJSON_GetObjectItem.exit, label %.lr.ph52.i.i

cJSON_GetObjectItem.exit:                         ; preds = %11, %case_insensitive_strcmp.exit.i.i, %case_insensitive_strcmp.exit.thread30.i.i, %.lr.ph.i.i.i, %2, %5
  %.019.i.i = phi i32 [ 0, %2 ], [ 0, %5 ], [ 1, %.lr.ph.i.i.i ], [ 0, %case_insensitive_strcmp.exit.thread30.i.i ], [ 1, %case_insensitive_strcmp.exit.i.i ], [ 1, %11 ]
  ret i32 %.019.i.i
}